; Function Attrs: mustprogress uwtable
define dso_local void @_Z14cast_if_neededP10Expression(ptr noundef %0) local_unnamed_addr #3 {
  %2 = load ptr, ptr %0, align 8, !tbaa !4
  %3 = getelementptr inbounds nuw i8, ptr %2, i64 24
  %4 = load ptr, ptr %3, align 8
  %5 = tail call noundef nonnull align 8 dereferenceable(136) ptr %4(ptr noundef nonnull align 8 dereferenceable(24) %0)
  %6 = getelementptr inbounds nuw i8, ptr %0, i64 8
  %7 = load i32, ptr %6, align 8, !tbaa !7
  %8 = icmp eq i32 %7, 0
  br i1 %8, label %9, label %19

9:                                                ; preds = %1
  %10 = load i32, ptr %5, align 8, !tbaa !14
  %11 = icmp eq i32 %10, 1
  br i1 %11, label %12, label %19

12:                                               ; preds = %9
  %13 = load ptr, ptr %0, align 8, !tbaa !4
  %14 = getelementptr inbounds nuw i8, ptr %13, i64 120
  %15 = load ptr, ptr %14, align 8
  %16 = tail call noundef zeroext i1 %15(ptr noundef nonnull align 8 dereferenceable(24) %0, i32 noundef 0)
  br i1 %16, label %17, label %19

17:                                               ; preds = %12
  %18 = getelementptr inbounds nuw i8, ptr %0, i64 16
  store ptr %5, ptr %18, align 8, !tbaa !38
  br label %19

19:                                               ; preds = %17, %12, %9, %1
  ret void
}